#include <math.h>
#include <stdio.h>
#include <stdlib.h>
#include <string.h>

int main()
{
	int n;/*??????*/
	char c[501];
	gets(c);
	n=strlen(c);
	int i;
	int j;/*j???????????*/
	int k;
	int x;
	int m;/*????????????+1*/
	int t;/*?????*/
	int q;/*q???????????*/
	int p;/*p???????????*/
	int y;/*?????????*/
	for(i=2;i<=n;i++)/*?1??????n???*//*????? 1??????*/
	{
		m=n-i+1;
		for(j=0;j<m;j++)/*????????????????????*/
		{
			y=0;
			q=i/2+j;
			p=j+i-1;
			for(k=j;k<q;k++)
			{
				if(c[k]==c[p-k+j])
					y++;
			}
			if(y==i/2)
			{
				for(x=j;x<=p;x++)
					printf("%c",c[x]);
				printf("\n");
			}
		}
	}
	return 0;
}