; ModuleID = '49/1138.c'
source_filename = "49/1138.c"
target datalayout = "e-m:e-p270:32:32-p271:32:32-p272:64:64-i64:64-f80:128-n8:16:32:64-S128"
target triple = "x86_64-pc-linux-gnu"

@.str = private unnamed_addr constant [3 x i8] c"%c\00", align 1
@.str.1 = private unnamed_addr constant [2 x i8] c"\0A\00", align 1

; Function Attrs: noinline nounwind uwtable
define dso_local i32 @main() #0 {
  %1 = alloca i32, align 4
  %2 = alloca i32, align 4
  %3 = alloca [501 x i8], align 16
  %4 = alloca i32, align 4
  %5 = alloca i32, align 4
  %6 = alloca i32, align 4
  %7 = alloca i32, align 4
  %8 = alloca i32, align 4
  %9 = alloca i32, align 4
  %10 = alloca i32, align 4
  %11 = alloca i32, align 4
  %12 = alloca i32, align 4
  store i32 0, i32* %1, align 4
  %13 = getelementptr inbounds [501 x i8], [501 x i8]* %3, i64 0, i64 0
  %14 = call i32 (i8*, ...) bitcast (i32 (...)* @gets to i32 (i8*, ...)*)(i8* %13)
  %15 = getelementptr inbounds [501 x i8], [501 x i8]* %3, i64 0, i64 0
  %16 = call i64 @strlen(i8* %15) #3
  %17 = trunc i64 %16 to i32
  store i32 %17, i32* %2, align 4
  store i32 2, i32* %4, align 4
  br label %18

18:                                               ; preds = %96, %0
  %19 = load i32, i32* %4, align 4
  %20 = load i32, i32* %2, align 4
  %21 = icmp sle i32 %19, %20
  br i1 %21, label %22, label %99

22:                                               ; preds = %18
  %23 = load i32, i32* %2, align 4
  %24 = load i32, i32* %4, align 4
  %25 = sub nsw i32 %23, %24
  %26 = add nsw i32 %25, 1
  store i32 %26, i32* %8, align 4
  store i32 0, i32* %5, align 4
  br label %27

27:                                               ; preds = %92, %22
  %28 = load i32, i32* %5, align 4
  %29 = load i32, i32* %8, align 4
  %30 = icmp slt i32 %28, %29
  br i1 %30, label %31, label %95

31:                                               ; preds = %27
  store i32 0, i32* %12, align 4
  %32 = load i32, i32* %4, align 4
  %33 = sdiv i32 %32, 2
  %34 = load i32, i32* %5, align 4
  %35 = add nsw i32 %33, %34
  store i32 %35, i32* %10, align 4
  %36 = load i32, i32* %5, align 4
  %37 = load i32, i32* %4, align 4
  %38 = add nsw i32 %36, %37
  %39 = sub nsw i32 %38, 1
  store i32 %39, i32* %11, align 4
  %40 = load i32, i32* %5, align 4
  store i32 %40, i32* %6, align 4
  br label %41

41:                                               ; preds = %65, %31
  %42 = load i32, i32* %6, align 4
  %43 = load i32, i32* %10, align 4
  %44 = icmp slt i32 %42, %43
  br i1 %44, label %45, label %68

45:                                               ; preds = %41
  %46 = load i32, i32* %6, align 4
  %47 = sext i32 %46 to i64
  %48 = getelementptr inbounds [501 x i8], [501 x i8]* %3, i64 0, i64 %47
  %49 = load i8, i8* %48, align 1
  %50 = sext i8 %49 to i32
  %51 = load i32, i32* %11, align 4
  %52 = load i32, i32* %6, align 4
  %53 = sub nsw i32 %51, %52
  %54 = load i32, i32* %5, align 4
  %55 = add nsw i32 %53, %54
  %56 = sext i32 %55 to i64
  %57 = getelementptr inbounds [501 x i8], [501 x i8]* %3, i64 0, i64 %56
  %58 = load i8, i8* %57, align 1
  %59 = sext i8 %58 to i32
  %60 = icmp eq i32 %50, %59
  br i1 %60, label %61, label %64

61:                                               ; preds = %45
  %62 = load i32, i32* %12, align 4
  %63 = add nsw i32 %62, 1
  store i32 %63, i32* %12, align 4
  br label %64

64:                                               ; preds = %61, %45
  br label %65

65:                                               ; preds = %64
  %66 = load i32, i32* %6, align 4
  %67 = add nsw i32 %66, 1
  store i32 %67, i32* %6, align 4
  br label %41

68:                                               ; preds = %41
  %69 = load i32, i32* %12, align 4
  %70 = load i32, i32* %4, align 4
  %71 = sdiv i32 %70, 2
  %72 = icmp eq i32 %69, %71
  br i1 %72, label %73, label %91

73:                                               ; preds = %68
  %74 = load i32, i32* %5, align 4
  store i32 %74, i32* %7, align 4
  br label %75

75:                                               ; preds = %86, %73
  %76 = load i32, i32* %7, align 4
  %77 = load i32, i32* %11, align 4
  %78 = icmp sle i32 %76, %77
  br i1 %78, label %79, label %89

79:                                               ; preds = %75
  %80 = load i32, i32* %7, align 4
  %81 = sext i32 %80 to i64
  %82 = getelementptr inbounds [501 x i8], [501 x i8]* %3, i64 0, i64 %81
  %83 = load i8, i8* %82, align 1
  %84 = sext i8 %83 to i32
  %85 = call i32 (i8*, ...) @printf(i8* getelementptr inbounds ([3 x i8], [3 x i8]* @.str, i64 0, i64 0), i32 %84)
  br label %86

86:                                               ; preds = %79
  %87 = load i32, i32* %7, align 4
  %88 = add nsw i32 %87, 1
  store i32 %88, i32* %7, align 4
  br label %75

89:                                               ; preds = %75
  %90 = call i32 (i8*, ...) @printf(i8* getelementptr inbounds ([2 x i8], [2 x i8]* @.str.1, i64 0, i64 0))
  br label %91

91:                                               ; preds = %89, %68
  br label %92

92:                                               ; preds = %91
  %93 = load i32, i32* %5, align 4
  %94 = add nsw i32 %93, 1
  store i32 %94, i32* %5, align 4
  br label %27

95:                                               ; preds = %27
  br label %96

96:                                               ; preds = %95
  %97 = load i32, i32* %4, align 4
  %98 = add nsw i32 %97, 1
  store i32 %98, i32* %4, align 4
  br label %18

99:                                               ; preds = %18
  ret i32 0
}

declare dso_local i32 @gets(...) #1

; Function Attrs: nounwind readonly
declare dso_local i64 @strlen(i8*) #2

declare dso_local i32 @printf(i8*, ...) #1


!llvm.module.flags = !{!0}
!llvm.ident = !{!1}

!0 = !{i32 1, !"wchar_size", i32 4}
!1 = !{!"clang version 10.0.0-4ubuntu1 "}
